(lp0
(lp1
S'http://www.football-lineups.com/tourn/Champions_League_2001-2002/Stats/Players_Used/'
p2
aVhttp://www.football-lineups.com/team/Nantes/Champions_League_2001-2002/Stats/Most_Capped/
p3
aa(lp4
g2
aVhttp://www.football-lineups.com/team/Real_Madrid/Champions_League_2001-2002/Stats/Most_Capped/
p5
aa(lp6
g2
aVhttp://www.football-lineups.com/team/Juventus/Champions_League_2001-2002/Stats/Most_Capped/
p7
aa(lp8
g2
aVhttp://www.football-lineups.com/team/Porto/Champions_League_2001-2002/Stats/Most_Capped/
p9
aa(lp10
g2
aVhttp://www.football-lineups.com/team/Arsenal/Champions_League_2001-2002/Stats/Most_Capped/
p11
aa(lp12
g2
aVhttp://www.football-lineups.com/team/Roma/Champions_League_2001-2002/Stats/Most_Capped/
p13
aa(lp14
g2
aVhttp://www.football-lineups.com/team/Deportivo_La_Coruna/Champions_League_2001-2002/Stats/Most_Capped/
p15
aa(lp16
g2
aVhttp://www.football-lineups.com/team/Bayern_Munchen/Champions_League_2001-2002/Stats/Most_Capped/
p17
aa(lp18
g2
aVhttp://www.football-lineups.com/team/Manchester_United/Champions_League_2001-2002/Stats/Most_Capped/
p19
aa(lp20
g2
aVhttp://www.football-lineups.com/team/Barcelona/Champions_League_2001-2002/Stats/Most_Capped/
p21
aa(lp22
g2
aVhttp://www.football-lineups.com/team/Boavista/Champions_League_2001-2002/Stats/Most_Capped/
p23
aa(lp24
g2
aVhttp://www.football-lineups.com/team/PSV_Eindhoven/Champions_League_2001-2002/Stats/Most_Capped/
p25
aa(lp26
g2
aVhttp://www.football-lineups.com/team/Liverpool/Champions_League_2001-2002/Stats/Most_Capped/
p27
aa(lp28
g2
aVhttp://www.football-lineups.com/team/Sparta_Prague/Champions_League_2001-2002/Stats/Most_Capped/
p29
aa(lp30
g2
aVhttp://www.football-lineups.com/team/Mallorca/Champions_League_2001-2002/Stats/Most_Capped/
p31
aa(lp32
g2
aVhttp://www.football-lineups.com/team/Panathinaikos/Champions_League_2001-2002/Stats/Most_Capped/
p33
aa(lp34
g2
aVhttp://www.football-lineups.com/team/Anderlecht/Champions_League_2001-2002/Stats/Most_Capped/
p35
aa(lp36
g2
aVhttp://www.football-lineups.com/team/Galatasaray/Champions_League_2001-2002/Stats/Most_Capped/
p37
aa(lp38
g2
aVhttp://www.football-lineups.com/team/Feyenoord/Champions_League_2001-2002/Stats/Most_Capped/
p39
aa(lp40
g2
aVhttp://www.football-lineups.com/team/Olympiakos/Champions_League_2001-2002/Stats/Most_Capped/
p41
aa(lp42
g2
aVhttp://www.football-lineups.com/team/Lille/Champions_League_2001-2002/Stats/Most_Capped/
p43
aa(lp44
g2
aVhttp://www.football-lineups.com/team/Schalke_04/Champions_League_2001-2002/Stats/Most_Capped/
p45
aa(lp46
g2
aVhttp://www.football-lineups.com/team/Fenerbahce/Champions_League_2001-2002/Stats/Most_Capped/
p47
aa(lp48
g2
aVhttp://www.football-lineups.com/team/Bayer_Leverkusen/Champions_League_2001-2002/Stats/Most_Capped/
p49
aa(lp50
g2
aVhttp://www.football-lineups.com/team/Lazio/Champions_League_2001-2002/Stats/Most_Capped/
p51
aa(lp52
g2
aVhttp://www.football-lineups.com/team/Spartak_Moscow/Champions_League_2001-2002/Stats/Most_Capped/
p53
aa(lp54
g2
aVhttp://www.football-lineups.com/team/Olympique_Lyon/Champions_League_2001-2002/Stats/Most_Capped/
p55
aa(lp56
g2
aVhttp://www.football-lineups.com/team/Borussia_Dortmund/Champions_League_2001-2002/Stats/Most_Capped/
p57
aa(lp58
g2
aVhttp://www.football-lineups.com/team/Dynamo_Kiev/Champions_League_2001-2002/Stats/Most_Capped/
p59
aa(lp60
g2
aVhttp://www.football-lineups.com/team/Celtic_FC/Champions_League_2001-2002/Stats/Most_Capped/
p61
aa(lp62
g2
aVhttp://www.football-lineups.com/team/Lokomotiv_Moscow/Champions_League_2001-2002/Stats/Most_Capped/
p63
aa(lp64
g2
aVhttp://www.football-lineups.com/team/Rosenborg_BK/Champions_League_2001-2002/Stats/Most_Capped/
p65
aa(lp66
S'http://www.football-lineups.com/tourn/Champions_League_2002-2003/Stats/Players_Used/'
p67
aVhttp://www.football-lineups.com/team/Manchester_United/Champions_League_2002-2003/Stats/Most_Capped/
p68
aa(lp69
g67
aVhttp://www.football-lineups.com/team/Barcelona/Champions_League_2002-2003/Stats/Most_Capped/
p70
aa(lp71
g67
aVhttp://www.football-lineups.com/team/Ajax/Champions_League_2002-2003/Stats/Most_Capped/
p72
aa(lp73
g67
aVhttp://www.football-lineups.com/team/Juventus/Champions_League_2002-2003/Stats/Most_Capped/
p74
aa(lp75
g67
aVhttp://www.football-lineups.com/team/Bayer_Leverkusen/Champions_League_2002-2003/Stats/Most_Capped/
p76
aa(lp77
g67
aVhttp://www.football-lineups.com/team/AC_Milan/Champions_League_2002-2003/Stats/Most_Capped/
p78
aa(lp79
g67
aVhttp://www.football-lineups.com/team/Valencia/Champions_League_2002-2003/Stats/Most_Capped/
p80
aa(lp81
g67
aVhttp://www.football-lineups.com/team/Arsenal/Champions_League_2002-2003/Stats/Most_Capped/
p82
aa(lp83
g67
aVhttp://www.football-lineups.com/team/Deportivo_La_Coruna/Champions_League_2002-2003/Stats/Most_Capped/
p84
aa(lp85
g67
aVhttp://www.football-lineups.com/team/Inter_Milan/Champions_League_2002-2003/Stats/Most_Capped/
p86
aa(lp87
g67
aVhttp://www.football-lineups.com/team/Real_Madrid/Champions_League_2002-2003/Stats/Most_Capped/
p88
aa(lp89
g67
aVhttp://www.football-lineups.com/team/Roma/Champions_League_2002-2003/Stats/Most_Capped/
p90
aa(lp91
g67
aVhttp://www.football-lineups.com/team/Bayern_Munchen/Champions_League_2002-2003/Stats/Most_Capped/
p92
aa(lp93
g67
aVhttp://www.football-lineups.com/team/Newcastle_United/Champions_League_2002-2003/Stats/Most_Capped/
p94
aa(lp95
g67
aVhttp://www.football-lineups.com/team/Borussia_Dortmund/Champions_League_2002-2003/Stats/Most_Capped/
p96
aa(lp97
g67
aVhttp://www.football-lineups.com/team/Galatasaray/Champions_League_2002-2003/Stats/Most_Capped/
p98
aa(lp99
g67
aVhttp://www.football-lineups.com/team/Spartak_Moscow/Champions_League_2002-2003/Stats/Most_Capped/
p100
aa(lp101
g67
aVhttp://www.football-lineups.com/team/FC_Basel/Champions_League_2002-2003/Stats/Most_Capped/
p102
aa(lp103
g67
aVhttp://www.football-lineups.com/team/Lokomotiv_Moscow/Champions_League_2002-2003/Stats/Most_Capped/
p104
aa(lp105
g67
aVhttp://www.football-lineups.com/team/Feyenoord/Champions_League_2002-2003/Stats/Most_Capped/
p106
aa(lp107
g67
aVhttp://www.football-lineups.com/team/RC_Genk/Champions_League_2002-2003/Stats/Most_Capped/
p108
aa(lp109
g67
aVhttp://www.football-lineups.com/team/Club_Brugge/Champions_League_2002-2003/Stats/Most_Capped/
p110
aa(lp111
g67
aVhttp://www.football-lineups.com/team/PSV_Eindhoven/Champions_League_2002-2003/Stats/Most_Capped/
p112
aa(lp113
g67
aVhttp://www.football-lineups.com/team/Liverpool/Champions_League_2002-2003/Stats/Most_Capped/
p114
aa(lp115
g67
aVhttp://www.football-lineups.com/team/Olympique_Lyon/Champions_League_2002-2003/Stats/Most_Capped/
p116
aa(lp117
g67
aVhttp://www.football-lineups.com/team/Dynamo_Kiev/Champions_League_2002-2003/Stats/Most_Capped/
p118
aa(lp119
g67
aVhttp://www.football-lineups.com/team/Olympiakos/Champions_League_2002-2003/Stats/Most_Capped/
p120
aa(lp121
g67
aVhttp://www.football-lineups.com/team/Lens/Champions_League_2002-2003/Stats/Most_Capped/
p122
aa(lp123
g67
aVhttp://www.football-lineups.com/team/Maccabi_Haifa/Champions_League_2002-2003/Stats/Most_Capped/
p124
aa(lp125
g67
aVhttp://www.football-lineups.com/team/Rosenborg_BK/Champions_League_2002-2003/Stats/Most_Capped/
p126
aa(lp127
g67
aVhttp://www.football-lineups.com/team/AEK_Athens/Champions_League_2002-2003/Stats/Most_Capped/
p128
aa(lp129
g67
aVhttp://www.football-lineups.com/team/Auxerre/Champions_League_2002-2003/Stats/Most_Capped/
p130
aa(lp131
S'http://www.football-lineups.com/tourn/Champions_League_2003-2004/Stats/Players_Used/'
p132
aVhttp://www.football-lineups.com/team/Sparta_Prague/Champions_League_2003-2004/Stats/Most_Capped/
p133
aa(lp134
g132
aVhttp://www.football-lineups.com/team/AC_Milan/Champions_League_2003-2004/Stats/Most_Capped/
p135
aa(lp136
g132
aVhttp://www.football-lineups.com/team/Juventus/Champions_League_2003-2004/Stats/Most_Capped/
p137
aa(lp138
g132
aVhttp://www.football-lineups.com/team/Chelsea/Champions_League_2003-2004/Stats/Most_Capped/
p139
aa(lp140
g132
aVhttp://www.football-lineups.com/team/Celta_Vigo/Champions_League_2003-2004/Stats/Most_Capped/
p141
aa(lp142
g132
aVhttp://www.football-lineups.com/team/AEK_Athens/Champions_League_2003-2004/Stats/Most_Capped/
p143
aa(lp144
g132
aVhttp://www.football-lineups.com/team/Porto/Champions_League_2003-2004/Stats/Most_Capped/
p145
aa(lp146
g132
aVhttp://www.football-lineups.com/team/Galatasaray/Champions_League_2003-2004/Stats/Most_Capped/
p147
aa(lp148
g132
aVhttp://www.football-lineups.com/team/Deportivo_La_Coruna/Champions_League_2003-2004/Stats/Most_Capped/
p149
aa(lp150
g132
aVhttp://www.football-lineups.com/team/Inter_Milan/Champions_League_2003-2004/Stats/Most_Capped/
p151
aa(lp152
g132
aVhttp://www.football-lineups.com/team/Partizan_Belgrade/Champions_League_2003-2004/Stats/Most_Capped/
p153
aa(lp154
g132
aVhttp://www.football-lineups.com/team/Ajax/Champions_League_2003-2004/Stats/Most_Capped/
p155
aa(lp156
g132
aVhttp://www.football-lineups.com/team/Manchester_United/Champions_League_2003-2004/Stats/Most_Capped/
p157
aa(lp158
g132
aVhttp://www.football-lineups.com/team/Lazio/Champions_League_2003-2004/Stats/Most_Capped/
p159
aa(lp160
g132
aVhttp://www.football-lineups.com/team/Panathinaikos/Champions_League_2003-2004/Stats/Most_Capped/
p161
aa(lp162
g132
aVhttp://www.football-lineups.com/team/VfB_Stuttgart/Champions_League_2003-2004/Stats/Most_Capped/
p163
aa(lp164
g132
aVhttp://www.football-lineups.com/team/Real_Madrid/Champions_League_2003-2004/Stats/Most_Capped/
p165
aa(lp166
g132
aVhttp://www.football-lineups.com/team/Arsenal/Champions_League_2003-2004/Stats/Most_Capped/
p167
aa(lp168
g132
aVhttp://www.football-lineups.com/team/Club_Brugge/Champions_League_2003-2004/Stats/Most_Capped/
p169
aa(lp170
g132
aVhttp://www.football-lineups.com/team/Olympiakos/Champions_League_2003-2004/Stats/Most_Capped/
p171
aa(lp172
g132
aVhttp://www.football-lineups.com/team/Olympique_Lyon/Champions_League_2003-2004/Stats/Most_Capped/
p173
aa(lp174
g132
aVhttp://www.football-lineups.com/team/Real_Sociedad/Champions_League_2003-2004/Stats/Most_Capped/
p175
aa(lp176
g132
aVhttp://www.football-lineups.com/team/AS_Monaco/Champions_League_2003-2004/Stats/Most_Capped/
p177
aa(lp178
g132
aVhttp://www.football-lineups.com/team/Olympique_Marseille/Champions_League_2003-2004/Stats/Most_Capped/
p179
aa(lp180
g132
aVhttp://www.football-lineups.com/team/Lokomotiv_Moscow/Champions_League_2003-2004/Stats/Most_Capped/
p181
aa(lp182
g132
aVhttp://www.football-lineups.com/team/PSV_Eindhoven/Champions_League_2003-2004/Stats/Most_Capped/
p183
aa(lp184
g132
aVhttp://www.football-lineups.com/team/Dynamo_Kiev/Champions_League_2003-2004/Stats/Most_Capped/
p185
aa(lp186
g132
aVhttp://www.football-lineups.com/team/Bayern_Munchen/Champions_League_2003-2004/Stats/Most_Capped/
p187
aa(lp188
g132
aVhttp://www.football-lineups.com/team/Celtic_FC/Champions_League_2003-2004/Stats/Most_Capped/
p189
aa(lp190
g132
aVhttp://www.football-lineups.com/team/Rangers/Champions_League_2003-2004/Stats/Most_Capped/
p191
aa(lp192
g132
aVhttp://www.football-lineups.com/team/Besiktas/Champions_League_2003-2004/Stats/Most_Capped/
p193
aa(lp194
g132
aVhttp://www.football-lineups.com/team/Anderlecht/Champions_League_2003-2004/Stats/Most_Capped/
p195
aa(lp196
S'http://www.football-lineups.com/tourn/Champions_League_2004_2005/Stats/Players_Used/'
p197
aVhttp://www.football-lineups.com/team/Manchester_United/Champions_League_2004_2005/Stats/Most_Capped/
p198
aa(lp199
g197
aVhttp://www.football-lineups.com/team/Liverpool/Champions_League_2004_2005/Stats/Most_Capped/
p200
aa(lp201
g197
aVhttp://www.football-lineups.com/team/Inter_Milan/Champions_League_2004_2005/Stats/Most_Capped/
p202
aa(lp203
g197
aVhttp://www.football-lineups.com/team/Porto/Champions_League_2004_2005/Stats/Most_Capped/
p204
aa(lp205
g197
aVhttp://www.football-lineups.com/team/Roma/Champions_League_2004_2005/Stats/Most_Capped/
p206
aa(lp207
g197
aVhttp://www.football-lineups.com/team/Chelsea/Champions_League_2004_2005/Stats/Most_Capped/
p208
aa(lp209
g197
aVhttp://www.football-lineups.com/team/Barcelona/Champions_League_2004_2005/Stats/Most_Capped/
p210
aa(lp211
g197
aVhttp://www.football-lineups.com/team/Bayern_Munchen/Champions_League_2004_2005/Stats/Most_Capped/
p212
aa(lp213
g197
aVhttp://www.football-lineups.com/team/Ajax/Champions_League_2004_2005/Stats/Most_Capped/
p214
aa(lp215
g197
aVhttp://www.football-lineups.com/team/AC_Milan/Champions_League_2004_2005/Stats/Most_Capped/
p216
aa(lp217
g197
aVhttp://www.football-lineups.com/team/Olympique_Lyon/Champions_League_2004_2005/Stats/Most_Capped/
p218
aa(lp219
g197
aVhttp://www.football-lineups.com/team/Panathinaikos/Champions_League_2004_2005/Stats/Most_Capped/
p220
aa(lp221
g197
aVhttp://www.football-lineups.com/team/Anderlecht/Champions_League_2004_2005/Stats/Most_Capped/
p222
aa(lp223
g197
aVhttp://www.football-lineups.com/team/Juventus/Champions_League_2004_2005/Stats/Most_Capped/
p224
aa(lp225
g197
aVhttp://www.football-lineups.com/team/Arsenal/Champions_League_2004_2005/Stats/Most_Capped/
p226
aa(lp227
g197
aVhttp://www.football-lineups.com/team/Bayer_Leverkusen/Champions_League_2004_2005/Stats/Most_Capped/
p228
aa(lp229
g197
aVhttp://www.football-lineups.com/team/Deportivo_La_Coruna/Champions_League_2004_2005/Stats/Most_Capped/
p230
aa(lp231
g197
aVhttp://www.football-lineups.com/team/Shakhtar_Donetsk/Champions_League_2004_2005/Stats/Most_Capped/
p232
aa(lp233
g197
aVhttp://www.football-lineups.com/team/PSG/Champions_League_2004_2005/Stats/Most_Capped/
p234
aa(lp235
g197
aVhttp://www.football-lineups.com/team/Werder_Bremen/Champions_League_2004_2005/Stats/Most_Capped/
p236
aa(lp237
g197
aVhttp://www.football-lineups.com/team/Valencia/Champions_League_2004_2005/Stats/Most_Capped/
p238
aa(lp239
g197
aVhttp://www.football-lineups.com/team/PSV_Eindhoven/Champions_League_2004_2005/Stats/Most_Capped/
p240
aa(lp241
g197
aVhttp://www.football-lineups.com/team/CSKA_Moscow/Champions_League_2004_2005/Stats/Most_Capped/
p242
aa(lp243
g197
aVhttp://www.football-lineups.com/team/AS_Monaco/Champions_League_2004_2005/Stats/Most_Capped/
p244
aa(lp245
g197
aVhttp://www.football-lineups.com/team/Maccabi_Tel_Aviv/Champions_League_2004_2005/Stats/Most_Capped/
p246
aa(lp247
g197
aVhttp://www.football-lineups.com/team/Fenerbahce/Champions_League_2004_2005/Stats/Most_Capped/
p248
aa(lp249
g197
aVhttp://www.football-lineups.com/team/Rosenborg_BK/Champions_League_2004_2005/Stats/Most_Capped/
p250
aa(lp251
g197
aVhttp://www.football-lineups.com/team/Olympiakos/Champions_League_2004_2005/Stats/Most_Capped/
p252
aa(lp253
g197
aVhttp://www.football-lineups.com/team/Sparta_Prague/Champions_League_2004_2005/Stats/Most_Capped/
p254
aa(lp255
g197
aVhttp://www.football-lineups.com/team/Dynamo_Kiev/Champions_League_2004_2005/Stats/Most_Capped/
p256
aa(lp257
g197
aVhttp://www.football-lineups.com/team/Celtic_FC/Champions_League_2004_2005/Stats/Most_Capped/
p258
aa(lp259
g197
aVhttp://www.football-lineups.com/team/Real_Madrid/Champions_League_2004_2005/Stats/Most_Capped/
p260
aa(lp261
S'http://www.football-lineups.com/tourn/Champions_League_2005-2006/Stats/Players_Used/'
p262
aVhttp://www.football-lineups.com/team/Real_Madrid/Champions_League_2005-2006/Stats/Most_Capped/
p263
aa(lp264
g262
aVhttp://www.football-lineups.com/team/Inter_Milan/Champions_League_2005-2006/Stats/Most_Capped/
p265
aa(lp266
g262
aVhttp://www.football-lineups.com/team/Arsenal/Champions_League_2005-2006/Stats/Most_Capped/
p267
aa(lp268
g262
aVhttp://www.football-lineups.com/team/Benfica/Champions_League_2005-2006/Stats/Most_Capped/
p269
aa(lp270
g262
aVhttp://www.football-lineups.com/team/Villarreal/Champions_League_2005-2006/Stats/Most_Capped/
p271
aa(lp272
g262
aVhttp://www.football-lineups.com/team/Anderlecht/Champions_League_2005-2006/Stats/Most_Capped/
p273
aa(lp274
g262
aVhttp://www.football-lineups.com/team/Real_Betis/Champions_League_2005-2006/Stats/Most_Capped/
p275
aa(lp276
g262
aVhttp://www.football-lineups.com/team/Olympique_Lyon/Champions_League_2005-2006/Stats/Most_Capped/
p277
aa(lp278
g262
aVhttp://www.football-lineups.com/team/Rangers/Champions_League_2005-2006/Stats/Most_Capped/
p279
aa(lp280
g262
aVhttp://www.football-lineups.com/team/Club_Brugge/Champions_League_2005-2006/Stats/Most_Capped/
p281
aa(lp282
g262
aVhttp://www.football-lineups.com/team/Lille/Champions_League_2005-2006/Stats/Most_Capped/
p283
aa(lp284
g262
aVhttp://www.football-lineups.com/team/AC_Milan/Champions_League_2005-2006/Stats/Most_Capped/
p285
aa(lp286
g262
aVhttp://www.football-lineups.com/team/Porto/Champions_League_2005-2006/Stats/Most_Capped/
p287
aa(lp288
g262
aVhttp://www.football-lineups.com/team/Barcelona/Champions_League_2005-2006/Stats/Most_Capped/
p289
aa(lp290
g262
aVhttp://www.football-lineups.com/team/Ajax/Champions_League_2005-2006/Stats/Most_Capped/
p291
aa(lp292
g262
aVhttp://www.football-lineups.com/team/Bayern_Munchen/Champions_League_2005-2006/Stats/Most_Capped/
p293
aa(lp294
g262
aVhttp://www.football-lineups.com/team/Chelsea/Champions_League_2005-2006/Stats/Most_Capped/
p295
aa(lp296
g262
aVhttp://www.football-lineups.com/team/Juventus/Champions_League_2005-2006/Stats/Most_Capped/
p297
aa(lp298
g262
aVhttp://www.football-lineups.com/team/Olympiakos/Champions_League_2005-2006/Stats/Most_Capped/
p299
aa(lp300
g262
aVhttp://www.football-lineups.com/team/Liverpool/Champions_League_2005-2006/Stats/Most_Capped/
p301
aa(lp302
g262
aVhttp://www.football-lineups.com/team/Udinese/Champions_League_2005-2006/Stats/Most_Capped/
p303
aa(lp304
g262
aVhttp://www.football-lineups.com/team/Panathinaikos/Champions_League_2005-2006/Stats/Most_Capped/
p305
aa(lp306
g262
aVhttp://www.football-lineups.com/team/PSV_Eindhoven/Champions_League_2005-2006/Stats/Most_Capped/
p307
aa(lp308
g262
aVhttp://www.football-lineups.com/team/Rosenborg_BK/Champions_League_2005-2006/Stats/Most_Capped/
p309
aa(lp310
g262
aVhttp://www.football-lineups.com/team/Sparta_Prague/Champions_League_2005-2006/Stats/Most_Capped/
p311
aa(lp312
g262
aVhttp://www.football-lineups.com/team/Rapid_Vienna/Champions_League_2005-2006/Stats/Most_Capped/
p313
aa(lp314
g262
aVhttp://www.football-lineups.com/team/Manchester_United/Champions_League_2005-2006/Stats/Most_Capped/
p315
aa(lp316
g262
aVhttp://www.football-lineups.com/team/FC_Thun/Champions_League_2005-2006/Stats/Most_Capped/
p317
aa(lp318
g262
aVhttp://www.football-lineups.com/team/Artmedia_Bratislava/Champions_League_2005-2006/Stats/Most_Capped/
p319
aa(lp320
g262
aVhttp://www.football-lineups.com/team/Werder_Bremen/Champions_League_2005-2006/Stats/Most_Capped/
p321
aa(lp322
g262
aVhttp://www.football-lineups.com/team/Fenerbahce/Champions_League_2005-2006/Stats/Most_Capped/
p323
aa(lp324
g262
aVhttp://www.football-lineups.com/team/Schalke_04/Champions_League_2005-2006/Stats/Most_Capped/
p325
aa(lp326
S'http://www.football-lineups.com/tourn/Champions_League_2006-2007/Stats/Players_Used/'
p327
aVhttp://www.football-lineups.com/team/Valencia/Champions_League_2006-2007/Stats/Most_Capped/
p328
aa(lp329
g327
aVhttp://www.football-lineups.com/team/Real_Madrid/Champions_League_2006-2007/Stats/Most_Capped/
p330
aa(lp331
g327
aVhttp://www.football-lineups.com/team/Liverpool/Champions_League_2006-2007/Stats/Most_Capped/
p332
aa(lp333
g327
aVhttp://www.football-lineups.com/team/Dynamo_Kiev/Champions_League_2006-2007/Stats/Most_Capped/
p334
aa(lp335
g327
aVhttp://www.football-lineups.com/team/Lille/Champions_League_2006-2007/Stats/Most_Capped/
p336
aa(lp337
g327
aVhttp://www.football-lineups.com/team/Hamburg_SV/Champions_League_2006-2007/Stats/Most_Capped/
p338
aa(lp339
g327
aVhttp://www.football-lineups.com/team/Galatasaray/Champions_League_2006-2007/Stats/Most_Capped/
p340
aa(lp341
g327
aVhttp://www.football-lineups.com/team/PSV_Eindhoven/Champions_League_2006-2007/Stats/Most_Capped/
p342
aa(lp343
g327
aVhttp://www.football-lineups.com/team/Olympique_Lyon/Champions_League_2006-2007/Stats/Most_Capped/
p344
aa(lp345
g327
aVhttp://www.football-lineups.com/team/AC_Milan/Champions_League_2006-2007/Stats/Most_Capped/
p346
aa(lp347
g327
aVhttp://www.football-lineups.com/team/Inter_Milan/Champions_League_2006-2007/Stats/Most_Capped/
p348
aa(lp349
g327
aVhttp://www.football-lineups.com/team/Arsenal/Champions_League_2006-2007/Stats/Most_Capped/
p350
aa(lp351
g327
aVhttp://www.football-lineups.com/team/Chelsea/Champions_League_2006-2007/Stats/Most_Capped/
p352
aa(lp353
g327
aVhttp://www.football-lineups.com/team/Roma/Champions_League_2006-2007/Stats/Most_Capped/
p354
aa(lp355
g327
aVhttp://www.football-lineups.com/team/Shakhtar_Donetsk/Champions_League_2006-2007/Stats/Most_Capped/
p356
aa(lp357
g327
aVhttp://www.football-lineups.com/team/Bayern_Munchen/Champions_League_2006-2007/Stats/Most_Capped/
p358
aa(lp359
g327
aVhttp://www.football-lineups.com/team/Porto/Champions_League_2006-2007/Stats/Most_Capped/
p360
aa(lp361
g327
aVhttp://www.football-lineups.com/team/Levski_Sofia/Champions_League_2006-2007/Stats/Most_Capped/
p362
aa(lp363
g327
aVhttp://www.football-lineups.com/team/AEK_Athens/Champions_League_2006-2007/Stats/Most_Capped/
p364
aa(lp365
g327
aVhttp://www.football-lineups.com/team/Sporting_Lisbon/Champions_League_2006-2007/Stats/Most_Capped/
p366
aa(lp367
g327
aVhttp://www.football-lineups.com/team/Bordeaux/Champions_League_2006-2007/Stats/Most_Capped/
p368
aa(lp369
g327
aVhttp://www.football-lineups.com/team/Manchester_United/Champions_League_2006-2007/Stats/Most_Capped/
p370
aa(lp371
g327
aVhttp://www.football-lineups.com/team/Barcelona/Champions_League_2006-2007/Stats/Most_Capped/
p372
aa(lp373
g327
aVhttp://www.football-lineups.com/team/Werder_Bremen/Champions_League_2006-2007/Stats/Most_Capped/
p374
aa(lp375
g327
aVhttp://www.football-lineups.com/team/Spartak_Moscow/Champions_League_2006-2007/Stats/Most_Capped/
p376
aa(lp377
g327
aVhttp://www.football-lineups.com/team/Steaua_Bucuresti/Champions_League_2006-2007/Stats/Most_Capped/
p378
aa(lp379
g327
aVhttp://www.football-lineups.com/team/Olympiakos/Champions_League_2006-2007/Stats/Most_Capped/
p380
aa(lp381
g327
aVhttp://www.football-lineups.com/team/Celtic_FC/Champions_League_2006-2007/Stats/Most_Capped/
p382
aa(lp383
g327
aVhttp://www.football-lineups.com/team/Benfica/Champions_League_2006-2007/Stats/Most_Capped/
p384
aa(lp385
g327
aVhttp://www.football-lineups.com/team/Anderlecht/Champions_League_2006-2007/Stats/Most_Capped/
p386
aa(lp387
g327
aVhttp://www.football-lineups.com/team/CSKA_Moscow/Champions_League_2006-2007/Stats/Most_Capped/
p388
aa(lp389
g327
aVhttp://www.football-lineups.com/team/Copenhagen/Champions_League_2006-2007/Stats/Most_Capped/
p390
aa(lp391
S'http://www.football-lineups.com/tourn/Champions_League_2007-2008/Stats/Players_Used/'
p392
aVhttp://www.football-lineups.com/team/Dynamo_Kiev/Champions_League_2007-2008/Stats/Most_Capped/
p393
aa(lp394
g392
aVhttp://www.football-lineups.com/team/Manchester_United/Champions_League_2007-2008/Stats/Most_Capped/
p395
aa(lp396
g392
aVhttp://www.football-lineups.com/team/Chelsea/Champions_League_2007-2008/Stats/Most_Capped/
p397
aa(lp398
g392
aVhttp://www.football-lineups.com/team/Sevilla/Champions_League_2007-2008/Stats/Most_Capped/
p399
aa(lp400
g392
aVhttp://www.football-lineups.com/team/Arsenal/Champions_League_2007-2008/Stats/Most_Capped/
p401
aa(lp402
g392
aVhttp://www.football-lineups.com/team/Inter_Milan/Champions_League_2007-2008/Stats/Most_Capped/
p403
aa(lp404
g392
aVhttp://www.football-lineups.com/team/Slavia_Praha/Champions_League_2007-2008/Stats/Most_Capped/
p405
aa(lp406
g392
aVhttp://www.football-lineups.com/team/Real_Madrid/Champions_League_2007-2008/Stats/Most_Capped/
p407
aa(lp408
g392
aVhttp://www.football-lineups.com/team/Sporting_Lisbon/Champions_League_2007-2008/Stats/Most_Capped/
p409
aa(lp410
g392
aVhttp://www.football-lineups.com/team/Valencia/Champions_League_2007-2008/Stats/Most_Capped/
p411
aa(lp412
g392
aVhttp://www.football-lineups.com/team/Olympiakos/Champions_League_2007-2008/Stats/Most_Capped/
p413
aa(lp414
g392
aVhttp://www.football-lineups.com/team/Celtic_FC/Champions_League_2007-2008/Stats/Most_Capped/
p415
aa(lp416
g392
aVhttp://www.football-lineups.com/team/Schalke_04/Champions_League_2007-2008/Stats/Most_Capped/
p417
aa(lp418
g392
aVhttp://www.football-lineups.com/team/Barcelona/Champions_League_2007-2008/Stats/Most_Capped/
p419
aa(lp420
g392
aVhttp://www.football-lineups.com/team/AC_Milan/Champions_League_2007-2008/Stats/Most_Capped/
p421
aa(lp422
g392
aVhttp://www.football-lineups.com/team/Olympique_Lyon/Champions_League_2007-2008/Stats/Most_Capped/
p423
aa(lp424
g392
aVhttp://www.football-lineups.com/team/CSKA_Moscow/Champions_League_2007-2008/Stats/Most_Capped/
p425
aa(lp426
g392
aVhttp://www.football-lineups.com/team/Besiktas/Champions_League_2007-2008/Stats/Most_Capped/
p427
aa(lp428
g392
aVhttp://www.football-lineups.com/team/Roma/Champions_League_2007-2008/Stats/Most_Capped/
p429
aa(lp430
g392
aVhttp://www.football-lineups.com/team/Porto/Champions_League_2007-2008/Stats/Most_Capped/
p431
aa(lp432
g392
aVhttp://www.football-lineups.com/team/Liverpool/Champions_League_2007-2008/Stats/Most_Capped/
p433
aa(lp434
g392
aVhttp://www.football-lineups.com/team/Lazio/Champions_League_2007-2008/Stats/Most_Capped/
p435
aa(lp436
g392
aVhttp://www.football-lineups.com/team/VfB_Stuttgart/Champions_League_2007-2008/Stats/Most_Capped/
p437
aa(lp438
g392
aVhttp://www.football-lineups.com/team/Fenerbahce/Champions_League_2007-2008/Stats/Most_Capped/
p439
aa(lp440
g392
aVhttp://www.football-lineups.com/team/PSV_Eindhoven/Champions_League_2007-2008/Stats/Most_Capped/
p441
aa(lp442
g392
aVhttp://www.football-lineups.com/team/Steaua_Bucuresti/Champions_League_2007-2008/Stats/Most_Capped/
p443
aa(lp444
g392
aVhttp://www.football-lineups.com/team/Olympique_Marseille/Champions_League_2007-2008/Stats/Most_Capped/
p445
aa(lp446
g392
aVhttp://www.football-lineups.com/team/Werder_Bremen/Champions_League_2007-2008/Stats/Most_Capped/
p447
aa(lp448
g392
aVhttp://www.football-lineups.com/team/Benfica/Champions_League_2007-2008/Stats/Most_Capped/
p449
aa(lp450
g392
aVhttp://www.football-lineups.com/team/Rangers/Champions_League_2007-2008/Stats/Most_Capped/
p451
aa(lp452
g392
aVhttp://www.football-lineups.com/team/Rosenborg_BK/Champions_League_2007-2008/Stats/Most_Capped/
p453
aa(lp454
g392
aVhttp://www.football-lineups.com/team/Shakhtar_Donetsk/Champions_League_2007-2008/Stats/Most_Capped/
p455
aa(lp456
S'http://www.football-lineups.com/tourn/Champions_League_2008-2009/Stats/Players_Used/'
p457
aVhttp://www.football-lineups.com/team/Juventus/Champions_League_2008-2009/Stats/Most_Capped/
p458
aa(lp459
g457
aVhttp://www.football-lineups.com/team/Real_Madrid/Champions_League_2008-2009/Stats/Most_Capped/
p460
aa(lp461
g457
aVhttp://www.football-lineups.com/team/Arsenal/Champions_League_2008-2009/Stats/Most_Capped/
p462
aa(lp463
g457
aVhttp://www.football-lineups.com/team/Manchester_United/Champions_League_2008-2009/Stats/Most_Capped/
p464
aa(lp465
g457
aVhttp://www.football-lineups.com/team/Porto/Champions_League_2008-2009/Stats/Most_Capped/
p466
aa(lp467
g457
aVhttp://www.football-lineups.com/team/Inter_Milan/Champions_League_2008-2009/Stats/Most_Capped/
p468
aa(lp469
g457
aVhttp://www.football-lineups.com/team/Roma/Champions_League_2008-2009/Stats/Most_Capped/
p470
aa(lp471
g457
aVhttp://www.football-lineups.com/team/Barcelona/Champions_League_2008-2009/Stats/Most_Capped/
p472
aa(lp473
g457
aVhttp://www.football-lineups.com/team/Shakhtar_Donetsk/Champions_League_2008-2009/Stats/Most_Capped/
p474
aa(lp475
g457
aVhttp://www.football-lineups.com/team/Panathinaikos/Champions_League_2008-2009/Stats/Most_Capped/
p476
aa(lp477
g457
aVhttp://www.football-lineups.com/team/Liverpool/Champions_League_2008-2009/Stats/Most_Capped/
p478
aa(lp479
g457
aVhttp://www.football-lineups.com/team/Olympique_Lyon/Champions_League_2008-2009/Stats/Most_Capped/
p480
aa(lp481
g457
aVhttp://www.football-lineups.com/team/Chelsea/Champions_League_2008-2009/Stats/Most_Capped/
p482
aa(lp483
g457
aVhttp://www.football-lineups.com/team/FC_Basel/Champions_League_2008-2009/Stats/Most_Capped/
p484
aa(lp485
g457
aVhttp://www.football-lineups.com/team/Bayern_Munchen/Champions_League_2008-2009/Stats/Most_Capped/
p486
aa(lp487
g457
aVhttp://www.football-lineups.com/team/Atletico_Madrid/Champions_League_2008-2009/Stats/Most_Capped/
p488
aa(lp489
g457
aVhttp://www.football-lineups.com/team/Villarreal/Champions_League_2008-2009/Stats/Most_Capped/
p490
aa(lp491
g457
aVhttp://www.football-lineups.com/team/Celtic_FC/Champions_League_2008-2009/Stats/Most_Capped/
p492
aa(lp493
g457
aVhttp://www.football-lineups.com/team/Sporting_Lisbon/Champions_League_2008-2009/Stats/Most_Capped/
p494
aa(lp495
g457
aVhttp://www.football-lineups.com/team/Fiorentina/Champions_League_2008-2009/Stats/Most_Capped/
p496
aa(lp497
g457
aVhttp://www.football-lineups.com/team/Werder_Bremen/Champions_League_2008-2009/Stats/Most_Capped/
p498
aa(lp499
g457
aVhttp://www.football-lineups.com/team/PSV_Eindhoven/Champions_League_2008-2009/Stats/Most_Capped/
p500
aa(lp501
g457
aVhttp://www.football-lineups.com/team/Anorthosis/Champions_League_2008-2009/Stats/Most_Capped/
p502
aa(lp503
g457
aVhttp://www.football-lineups.com/team/Fenerbahce/Champions_League_2008-2009/Stats/Most_Capped/
p504
aa(lp505
g457
aVhttp://www.football-lineups.com/team/Steaua_Bucuresti/Champions_League_2008-2009/Stats/Most_Capped/
p506
aa(lp507
g457
aVhttp://www.football-lineups.com/team/FC_BATE/Champions_League_2008-2009/Stats/Most_Capped/
p508
aa(lp509
g457
aVhttp://www.football-lineups.com/team/Dynamo_Kiev/Champions_League_2008-2009/Stats/Most_Capped/
p510
aa(lp511
g457
aVhttp://www.football-lineups.com/team/Bordeaux/Champions_League_2008-2009/Stats/Most_Capped/
p512
aa(lp513
g457
aVhttp://www.football-lineups.com/team/CFR_Ecomax_Cluj_Napoca/Champions_League_2008-2009/Stats/Most_Capped/
p514
aa(lp515
g457
aVhttp://www.football-lineups.com/team/Olympique_Marseille/Champions_League_2008-2009/Stats/Most_Capped/
p516
aa(lp517
g457
aVhttp://www.football-lineups.com/team/Aalborg_BK/Champions_League_2008-2009/Stats/Most_Capped/
p518
aa(lp519
g457
aVhttp://www.football-lineups.com/team/Zenit_Saint_Petersburg/Champions_League_2008-2009/Stats/Most_Capped/
p520
aa(lp521
S'http://www.football-lineups.com/tourn/Champions_League_2009-2010/Stats/Players_Used/'
p522
aVhttp://www.football-lineups.com/team/Arsenal/Champions_League_2009-2010/Stats/Most_Capped/
p523
aa(lp524
g522
aVhttp://www.football-lineups.com/team/Manchester_United/Champions_League_2009-2010/Stats/Most_Capped/
p525
aa(lp526
g522
aVhttp://www.football-lineups.com/team/Sevilla/Champions_League_2009-2010/Stats/Most_Capped/
p527
aa(lp528
g522
aVhttp://www.football-lineups.com/team/AC_Milan/Champions_League_2009-2010/Stats/Most_Capped/
p529
aa(lp530
g522
aVhttp://www.football-lineups.com/team/Fiorentina/Champions_League_2009-2010/Stats/Most_Capped/
p531
aa(lp532
g522
aVhttp://www.football-lineups.com/team/Olympiakos/Champions_League_2009-2010/Stats/Most_Capped/
p533
aa(lp534
g522
aVhttp://www.football-lineups.com/team/Liverpool/Champions_League_2009-2010/Stats/Most_Capped/
p535
aa(lp536
g522
aVhttp://www.football-lineups.com/team/Chelsea/Champions_League_2009-2010/Stats/Most_Capped/
p537
aa(lp538
g522
aVhttp://www.football-lineups.com/team/Bordeaux/Champions_League_2009-2010/Stats/Most_Capped/
p539
aa(lp540
g522
aVhttp://www.football-lineups.com/team/Inter_Milan/Champions_League_2009-2010/Stats/Most_Capped/
p541
aa(lp542
g522
aVhttp://www.football-lineups.com/team/VfB_Stuttgart/Champions_League_2009-2010/Stats/Most_Capped/
p543
aa(lp544
g522
aVhttp://www.football-lineups.com/team/Bayern_Munchen/Champions_League_2009-2010/Stats/Most_Capped/
p545
aa(lp546
g522
aVhttp://www.football-lineups.com/team/Porto/Champions_League_2009-2010/Stats/Most_Capped/
p547
aa(lp548
g522
aVhttp://www.football-lineups.com/team/Juventus/Champions_League_2009-2010/Stats/Most_Capped/
p549
aa(lp550
g522
aVhttp://www.football-lineups.com/team/Besiktas/Champions_League_2009-2010/Stats/Most_Capped/
p551
aa(lp552
g522
aVhttp://www.football-lineups.com/team/Real_Madrid/Champions_League_2009-2010/Stats/Most_Capped/
p553
aa(lp554
g522
aVhttp://www.football-lineups.com/team/Unirea_Valahorum_Urziceni/Champions_League_2009-2010/Stats/Most_Capped/
p555
aa(lp556
g522
aVhttp://www.football-lineups.com/team/Atletico_Madrid/Champions_League_2009-2010/Stats/Most_Capped/
p557
aa(lp558
g522
aVhttp://www.football-lineups.com/team/Olympique_Lyon/Champions_League_2009-2010/Stats/Most_Capped/
p559
aa(lp560
g522
aVhttp://www.football-lineups.com/team/Debrecen/Champions_League_2009-2010/Stats/Most_Capped/
p561
aa(lp562
g522
aVhttp://www.football-lineups.com/team/Maccabi_Haifa/Champions_League_2009-2010/Stats/Most_Capped/
p563
aa(lp564
g522
aVhttp://www.football-lineups.com/team/Apoel_Nicosia/Champions_League_2009-2010/Stats/Most_Capped/
p565
aa(lp566
g522
aVhttp://www.football-lineups.com/team/CSKA_Moscow/Champions_League_2009-2010/Stats/Most_Capped/
p567
aa(lp568
g522
aVhttp://www.football-lineups.com/team/Olympique_Marseille/Champions_League_2009-2010/Stats/Most_Capped/
p569
aa(lp570
g522
aVhttp://www.football-lineups.com/team/Barcelona/Champions_League_2009-2010/Stats/Most_Capped/
p571
aa(lp572
g522
aVhttp://www.football-lineups.com/team/FC_Zurich/Champions_League_2009-2010/Stats/Most_Capped/
p573
aa(lp574
g522
aVhttp://www.football-lineups.com/team/AZ_Alkmaar/Champions_League_2009-2010/Stats/Most_Capped/
p575
aa(lp576
g522
aVhttp://www.football-lineups.com/team/Standard_Liege/Champions_League_2009-2010/Stats/Most_Capped/
p577
aa(lp578
g522
aVhttp://www.football-lineups.com/team/Rangers/Champions_League_2009-2010/Stats/Most_Capped/
p579
aa(lp580
g522
aVhttp://www.football-lineups.com/team/Rubin_Kazan/Champions_League_2009-2010/Stats/Most_Capped/
p581
aa(lp582
g522
aVhttp://www.football-lineups.com/team/VfL_Wolfsburg/Champions_League_2009-2010/Stats/Most_Capped/
p583
aa(lp584
g522
aVhttp://www.football-lineups.com/team/Dynamo_Kiev/Champions_League_2009-2010/Stats/Most_Capped/
p585
aa(lp586
S'http://www.football-lineups.com/tourn/Champions_League_2010-2011/Stats/Players_Used/'
p587
aVhttp://www.football-lineups.com/team/Inter_Milan/Champions_League_2010-2011/Stats/Most_Capped/
p588
aa(lp589
g587
aVhttp://www.football-lineups.com/team/Manchester_United/Champions_League_2010-2011/Stats/Most_Capped/
p590
aa(lp591
g587
aVhttp://www.football-lineups.com/team/Schalke_04/Champions_League_2010-2011/Stats/Most_Capped/
p592
aa(lp593
g587
aVhttp://www.football-lineups.com/team/Real_Madrid/Champions_League_2010-2011/Stats/Most_Capped/
p594
aa(lp595
g587
aVhttp://www.football-lineups.com/team/Valencia/Champions_League_2010-2011/Stats/Most_Capped/
p596
aa(lp597
g587
aVhttp://www.football-lineups.com/team/Barcelona/Champions_League_2010-2011/Stats/Most_Capped/
p598
aa(lp599
g587
aVhttp://www.football-lineups.com/team/Roma/Champions_League_2010-2011/Stats/Most_Capped/
p600
aa(lp601
g587
aVhttp://www.football-lineups.com/team/Chelsea/Champions_League_2010-2011/Stats/Most_Capped/
p602
aa(lp603
g587
aVhttp://www.football-lineups.com/team/Tottenham_Hotspur/Champions_League_2010-2011/Stats/Most_Capped/
p604
aa(lp605
g587
aVhttp://www.football-lineups.com/team/Arsenal/Champions_League_2010-2011/Stats/Most_Capped/
p606
aa(lp607
g587
aVhttp://www.football-lineups.com/team/Bayern_Munchen/Champions_League_2010-2011/Stats/Most_Capped/
p608
aa(lp609
g587
aVhttp://www.football-lineups.com/team/AC_Milan/Champions_League_2010-2011/Stats/Most_Capped/
p610
aa(lp611
g587
aVhttp://www.football-lineups.com/team/CFR_Ecomax_Cluj_Napoca/Champions_League_2010-2011/Stats/Most_Capped/
p612
aa(lp613
g587
aVhttp://www.football-lineups.com/team/Spartak_Moscow/Champions_League_2010-2011/Stats/Most_Capped/
p614
aa(lp615
g587
aVhttp://www.football-lineups.com/team/Werder_Bremen/Champions_League_2010-2011/Stats/Most_Capped/
p616
aa(lp617
g587
aVhttp://www.football-lineups.com/team/Shakhtar_Donetsk/Champions_League_2010-2011/Stats/Most_Capped/
p618
aa(lp619
g587
aVhttp://www.football-lineups.com/team/Bursaspor/Champions_League_2010-2011/Stats/Most_Capped/
p620
aa(lp621
g587
aVhttp://www.football-lineups.com/team/Twente_Enschede/Champions_League_2010-2011/Stats/Most_Capped/
p622
aa(lp623
g587
aVhttp://www.football-lineups.com/team/Braga/Champions_League_2010-2011/Stats/Most_Capped/
p624
aa(lp625
g587
aVhttp://www.football-lineups.com/team/Partizan_Belgrade/Champions_League_2010-2011/Stats/Most_Capped/
p626
aa(lp627
g587
aVhttp://www.football-lineups.com/team/Olympique_Marseille/Champions_League_2010-2011/Stats/Most_Capped/
p628
aa(lp629
g587
aVhttp://www.football-lineups.com/team/Panathinaikos/Champions_League_2010-2011/Stats/Most_Capped/
p630
aa(lp631
g587
aVhttp://www.football-lineups.com/team/Olympique_Lyon/Champions_League_2010-2011/Stats/Most_Capped/
p632
aa(lp633
g587
aVhttp://www.football-lineups.com/team/Rubin_Kazan/Champions_League_2010-2011/Stats/Most_Capped/
p634
aa(lp635
g587
aVhttp://www.football-lineups.com/team/Auxerre/Champions_League_2010-2011/Stats/Most_Capped/
p636
aa(lp637
g587
aVhttp://www.football-lineups.com/team/Benfica/Champions_League_2010-2011/Stats/Most_Capped/
p638
aa(lp639
g587
aVhttp://www.football-lineups.com/team/Rangers/Champions_League_2010-2011/Stats/Most_Capped/
p640
aa(lp641
g587
aVhttp://www.football-lineups.com/team/Hapoel_Tel_Aviv/Champions_League_2010-2011/Stats/Most_Capped/
p642
aa(lp643
g587
aVhttp://www.football-lineups.com/team/MSK_Zilina/Champions_League_2010-2011/Stats/Most_Capped/
p644
aa(lp645
g587
aVhttp://www.football-lineups.com/team/Copenhagen/Champions_League_2010-2011/Stats/Most_Capped/
p646
aa(lp647
g587
aVhttp://www.football-lineups.com/team/FC_Basel/Champions_League_2010-2011/Stats/Most_Capped/
p648
aa(lp649
g587
aVhttp://www.football-lineups.com/team/Ajax/Champions_League_2010-2011/Stats/Most_Capped/
p650
aa(lp651
S'http://www.football-lineups.com/tourn/Champions_League_2011-2012/Stats/Players_Used/'
p652
aVhttp://www.football-lineups.com/team/Barcelona/Champions_League_2011-2012/Stats/Most_Capped/
p653
aa(lp654
g652
aVhttp://www.football-lineups.com/team/Arsenal/Champions_League_2011-2012/Stats/Most_Capped/
p655
aa(lp656
g652
aVhttp://www.football-lineups.com/team/AC_Milan/Champions_League_2011-2012/Stats/Most_Capped/
p657
aa(lp658
g652
aVhttp://www.football-lineups.com/team/Inter_Milan/Champions_League_2011-2012/Stats/Most_Capped/
p659
aa(lp660
g652
aVhttp://www.football-lineups.com/team/Real_Madrid/Champions_League_2011-2012/Stats/Most_Capped/
p661
aa(lp662
g652
aVhttp://www.football-lineups.com/team/Manchester_United/Champions_League_2011-2012/Stats/Most_Capped/
p663
aa(lp664
g652
aVhttp://www.football-lineups.com/team/Apoel_Nicosia/Champions_League_2011-2012/Stats/Most_Capped/
p665
aa(lp666
g652
aVhttp://www.football-lineups.com/team/Chelsea/Champions_League_2011-2012/Stats/Most_Capped/
p667
aa(lp668
g652
aVhttp://www.football-lineups.com/team/CSKA_Moscow/Champions_League_2011-2012/Stats/Most_Capped/
p669
aa(lp670
g652
aVhttp://www.football-lineups.com/team/Villarreal/Champions_League_2011-2012/Stats/Most_Capped/
p671
aa(lp672
g652
aVhttp://www.football-lineups.com/team/Olympique_Marseille/Champions_League_2011-2012/Stats/Most_Capped/
p673
aa(lp674
g652
aVhttp://www.football-lineups.com/team/FC_Otelul_Galati/Champions_League_2011-2012/Stats/Most_Capped/
p675
aa(lp676
g652
aVhttp://www.football-lineups.com/team/Benfica/Champions_League_2011-2012/Stats/Most_Capped/
p677
aa(lp678
g652
aVhttp://www.football-lineups.com/team/Olympiakos/Champions_League_2011-2012/Stats/Most_Capped/
p679
aa(lp680
g652
aVhttp://www.football-lineups.com/team/Bayern_Munchen/Champions_League_2011-2012/Stats/Most_Capped/
p681
aa(lp682
g652
aVhttp://www.football-lineups.com/team/Bayer_Leverkusen/Champions_League_2011-2012/Stats/Most_Capped/
p683
aa(lp684
g652
aVhttp://www.football-lineups.com/team/FC_BATE/Champions_League_2011-2012/Stats/Most_Capped/
p685
aa(lp686
g652
aVhttp://www.football-lineups.com/team/Borussia_Dortmund/Champions_League_2011-2012/Stats/Most_Capped/
p687
aa(lp688
g652
aVhttp://www.football-lineups.com/team/Ajax/Champions_League_2011-2012/Stats/Most_Capped/
p689
aa(lp690
g652
aVhttp://www.football-lineups.com/team/Shakhtar_Donetsk/Champions_League_2011-2012/Stats/Most_Capped/
p691
aa(lp692
g652
aVhttp://www.football-lineups.com/team/Manchester_City/Champions_League_2011-2012/Stats/Most_Capped/
p693
aa(lp694
g652
aVhttp://www.football-lineups.com/team/Olympique_Lyon/Champions_League_2011-2012/Stats/Most_Capped/
p695
aa(lp696
g652
aVhttp://www.football-lineups.com/team/FC_Basel/Champions_League_2011-2012/Stats/Most_Capped/
p697
aa(lp698
g652
aVhttp://www.football-lineups.com/team/Lille/Champions_League_2011-2012/Stats/Most_Capped/
p699
aa(lp700
g652
aVhttp://www.football-lineups.com/team/RC_Genk/Champions_League_2011-2012/Stats/Most_Capped/
p701
aa(lp702
g652
aVhttp://www.football-lineups.com/team/Porto/Champions_League_2011-2012/Stats/Most_Capped/
p703
aa(lp704
g652
aVhttp://www.football-lineups.com/team/Zenit_Saint_Petersburg/Champions_League_2011-2012/Stats/Most_Capped/
p705
aa(lp706
g652
aVhttp://www.football-lineups.com/team/Viktoria_Plzen/Champions_League_2011-2012/Stats/Most_Capped/
p707
aa(lp708
g652
aVhttp://www.football-lineups.com/team/Napoli/Champions_League_2011-2012/Stats/Most_Capped/
p709
aa(lp710
g652
aVhttp://www.football-lineups.com/team/Valencia/Champions_League_2011-2012/Stats/Most_Capped/
p711
aa(lp712
g652
aVhttp://www.football-lineups.com/team/Dinamo_Zagreb/Champions_League_2011-2012/Stats/Most_Capped/
p713
aa(lp714
g652
aVhttp://www.football-lineups.com/team/Trabzonspor/Champions_League_2011-2012/Stats/Most_Capped/
p715
aa(lp716
S'http://www.football-lineups.com/tourn/Champions_League_2012-2013/Stats/Players_Used/'
p717
aVhttp://www.football-lineups.com/team/AC_Milan/Champions_League_2012-2013/Stats/Most_Capped/
p718
aa(lp719
g717
aVhttp://www.football-lineups.com/team/Arsenal/Champions_League_2012-2013/Stats/Most_Capped/
p720
aa(lp721
g717
aVhttp://www.football-lineups.com/team/Manchester_United/Champions_League_2012-2013/Stats/Most_Capped/
p722
aa(lp723
g717
aVhttp://www.football-lineups.com/team/Montpellier_HSC/Champions_League_2012-2013/Stats/Most_Capped/
p724
aa(lp725
g717
aVhttp://www.football-lineups.com/team/Real_Madrid/Champions_League_2012-2013/Stats/Most_Capped/
p726
aa(lp727
g717
aVhttp://www.football-lineups.com/team/PSG/Champions_League_2012-2013/Stats/Most_Capped/
p728
aa(lp729
g717
aVhttp://www.football-lineups.com/team/Barcelona/Champions_League_2012-2013/Stats/Most_Capped/
p730
aa(lp731
g717
aVhttp://www.football-lineups.com/team/Malaga/Champions_League_2012-2013/Stats/Most_Capped/
p732
aa(lp733
g717
aVhttp://www.football-lineups.com/team/Juventus/Champions_League_2012-2013/Stats/Most_Capped/
p734
aa(lp735
g717
aVhttp://www.football-lineups.com/team/Schalke_04/Champions_League_2012-2013/Stats/Most_Capped/
p736
aa(lp737
g717
aVhttp://www.football-lineups.com/team/Valencia/Champions_League_2012-2013/Stats/Most_Capped/
p738
aa(lp739
g717
aVhttp://www.football-lineups.com/team/Spartak_Moscow/Champions_League_2012-2013/Stats/Most_Capped/
p740
aa(lp741
g717
aVhttp://www.football-lineups.com/team/Galatasaray/Champions_League_2012-2013/Stats/Most_Capped/
p742
aa(lp743
g717
aVhttp://www.football-lineups.com/team/Lille/Champions_League_2012-2013/Stats/Most_Capped/
p744
aa(lp745
g717
aVhttp://www.football-lineups.com/team/Bayern_Munchen/Champions_League_2012-2013/Stats/Most_Capped/
p746
aa(lp747
g717
aVhttp://www.football-lineups.com/team/Dynamo_Kiev/Champions_League_2012-2013/Stats/Most_Capped/
p748
aa(lp749
g717
aVhttp://www.football-lineups.com/team/Zenit_Saint_Petersburg/Champions_League_2012-2013/Stats/Most_Capped/
p750
aa(lp751
g717
aVhttp://www.football-lineups.com/team/Manchester_City/Champions_League_2012-2013/Stats/Most_Capped/
p752
aa(lp753
g717
aVhttp://www.football-lineups.com/team/Braga/Champions_League_2012-2013/Stats/Most_Capped/
p754
aa(lp755
g717
aVhttp://www.football-lineups.com/team/Olympiakos/Champions_League_2012-2013/Stats/Most_Capped/
p756
aa(lp757
g717
aVhttp://www.football-lineups.com/team/Anderlecht/Champions_League_2012-2013/Stats/Most_Capped/
p758
aa(lp759
g717
aVhttp://www.football-lineups.com/team/Borussia_Dortmund/Champions_League_2012-2013/Stats/Most_Capped/
p760
aa(lp761
g717
aVhttp://www.football-lineups.com/team/Benfica/Champions_League_2012-2013/Stats/Most_Capped/
p762
aa(lp763
g717
aVhttp://www.football-lineups.com/team/CFR_Ecomax_Cluj_Napoca/Champions_League_2012-2013/Stats/Most_Capped/
p764
aa(lp765
g717
aVhttp://www.football-lineups.com/team/Porto/Champions_League_2012-2013/Stats/Most_Capped/
p766
aa(lp767
g717
aVhttp://www.football-lineups.com/team/FC_Nordsjaelland/Champions_League_2012-2013/Stats/Most_Capped/
p768
aa(lp769
g717
aVhttp://www.football-lineups.com/team/FC_BATE/Champions_League_2012-2013/Stats/Most_Capped/
p770
aa(lp771
g717
aVhttp://www.football-lineups.com/team/Chelsea/Champions_League_2012-2013/Stats/Most_Capped/
p772
aa(lp773
g717
aVhttp://www.football-lineups.com/team/Dinamo_Zagreb/Champions_League_2012-2013/Stats/Most_Capped/
p774
aa(lp775
g717
aVhttp://www.football-lineups.com/team/Celtic_FC/Champions_League_2012-2013/Stats/Most_Capped/
p776
aa(lp777
g717
aVhttp://www.football-lineups.com/team/Ajax/Champions_League_2012-2013/Stats/Most_Capped/
p778
aa(lp779
g717
aVhttp://www.football-lineups.com/team/Shakhtar_Donetsk/Champions_League_2012-2013/Stats/Most_Capped/
p780
aa(lp781
S'http://www.football-lineups.com/tourn/Champions_League_2013-2014/Stats/Players_Used/'
p782
aVhttp://www.football-lineups.com/team/Benfica/Champions_League_2013-2014/Stats/Most_Capped/
p783
aa(lp784
g782
aVhttp://www.football-lineups.com/team/Juventus/Champions_League_2013-2014/Stats/Most_Capped/
p785
aa(lp786
g782
aVhttp://www.football-lineups.com/team/Austria_Vienna/Champions_League_2013-2014/Stats/Most_Capped/
p787
aa(lp788
g782
aVhttp://www.football-lineups.com/team/Olympique_Marseille/Champions_League_2013-2014/Stats/Most_Capped/
p789
aa(lp790
g782
aVhttp://www.football-lineups.com/team/Manchester_United/Champions_League_2013-2014/Stats/Most_Capped/
p791
aa(lp792
g782
aVhttp://www.football-lineups.com/team/Chelsea/Champions_League_2013-2014/Stats/Most_Capped/
p793
aa(lp794
g782
aVhttp://www.football-lineups.com/team/Schalke_04/Champions_League_2013-2014/Stats/Most_Capped/
p795
aa(lp796
g782
aVhttp://www.football-lineups.com/team/Atletico_Madrid/Champions_League_2013-2014/Stats/Most_Capped/
p797
aa(lp798
g782
aVhttp://www.football-lineups.com/team/Ajax/Champions_League_2013-2014/Stats/Most_Capped/
p799
aa(lp800
g782
aVhttp://www.football-lineups.com/team/Olympiakos/Champions_League_2013-2014/Stats/Most_Capped/
p801
aa(lp802
g782
aVhttp://www.football-lineups.com/team/Real_Madrid/Champions_League_2013-2014/Stats/Most_Capped/
p803
aa(lp804
g782
aVhttp://www.football-lineups.com/team/AC_Milan/Champions_League_2013-2014/Stats/Most_Capped/
p805
aa(lp806
g782
aVhttp://www.football-lineups.com/team/Arsenal/Champions_League_2013-2014/Stats/Most_Capped/
p807
aa(lp808
g782
aVhttp://www.football-lineups.com/team/Bayern_Munchen/Champions_League_2013-2014/Stats/Most_Capped/
p809
aa(lp810
g782
aVhttp://www.football-lineups.com/team/Galatasaray/Champions_League_2013-2014/Stats/Most_Capped/
p811
aa(lp812
g782
aVhttp://www.football-lineups.com/team/Real_Sociedad/Champions_League_2013-2014/Stats/Most_Capped/
p813
aa(lp814
g782
aVhttp://www.football-lineups.com/team/CSKA_Moscow/Champions_League_2013-2014/Stats/Most_Capped/
p815
aa(lp816
g782
aVhttp://www.football-lineups.com/team/Bayer_Leverkusen/Champions_League_2013-2014/Stats/Most_Capped/
p817
aa(lp818
g782
aVhttp://www.football-lineups.com/team/Zenit_Saint_Petersburg/Champions_League_2013-2014/Stats/Most_Capped/
p819
aa(lp820
g782
aVhttp://www.football-lineups.com/team/Celtic_FC/Champions_League_2013-2014/Stats/Most_Capped/
p821
aa(lp822
g782
aVhttp://www.football-lineups.com/team/FC_Basel/Champions_League_2013-2014/Stats/Most_Capped/
p823
aa(lp824
g782
aVhttp://www.football-lineups.com/team/Viktoria_Plzen/Champions_League_2013-2014/Stats/Most_Capped/
p825
aa(lp826
g782
aVhttp://www.football-lineups.com/team/Anderlecht/Champions_League_2013-2014/Stats/Most_Capped/
p827
aa(lp828
g782
aVhttp://www.football-lineups.com/team/Napoli/Champions_League_2013-2014/Stats/Most_Capped/
p829
aa(lp830
g782
aVhttp://www.football-lineups.com/team/Manchester_City/Champions_League_2013-2014/Stats/Most_Capped/
p831
aa(lp832
g782
aVhttp://www.football-lineups.com/team/PSG/Champions_League_2013-2014/Stats/Most_Capped/
p833
aa(lp834
g782
aVhttp://www.football-lineups.com/team/Borussia_Dortmund/Champions_League_2013-2014/Stats/Most_Capped/
p835
aa(lp836
g782
aVhttp://www.football-lineups.com/team/Steaua_Bucuresti/Champions_League_2013-2014/Stats/Most_Capped/
p837
aa(lp838
g782
aVhttp://www.football-lineups.com/team/Porto/Champions_League_2013-2014/Stats/Most_Capped/
p839
aa(lp840
g782
aVhttp://www.football-lineups.com/team/Copenhagen/Champions_League_2013-2014/Stats/Most_Capped/
p841
aa(lp842
g782
aVhttp://www.football-lineups.com/team/Shakhtar_Donetsk/Champions_League_2013-2014/Stats/Most_Capped/
p843
aa(lp844
g782
aVhttp://www.football-lineups.com/team/Barcelona/Champions_League_2013-2014/Stats/Most_Capped/
p845
aa.