(lp0
(lp1
Vhttp://www.football-lineups.com/footballer/6223/?t=838
p2
aVBogdan Ionut Lobont
p3
aV540
p4
aV42%
p5
aa(lp6
Vhttp://www.football-lineups.com/footballer/1184/?t=838
p7
aVRafael van der Vaart
p8
aV485
p9
aV38%
p10
aa(lp11
Vhttp://www.football-lineups.com/footballer/1208/?t=838
p12
aVJohn O Brien
p13
aV455
p14
aV36%
p15
aa(lp16
Vhttp://www.football-lineups.com/footballer/3098/?t=838
p17
aVVictor Sikora
p18
aV241
p19
aV19%
p20
aa.